target datalayout = "e-m:e-p270:32:32-p271:32:32-p272:64:64-i64:64-i128:128-f80:128-n8:16:32:64-S128"
target triple = "x86_64-pc-linux-gnu"

%struct.RBasic = type { i64, i64 }
%struct.RRational = type { %struct.RBasic, i64, i64 }

@.str.17 = private unnamed_addr constant [2 x i8] c"/\00", align 1

; Function Attrs: inlinehint nounwind sspstrong uwtable
define internal i64 @rbimpl_strlen(ptr noundef nonnull %0) #3 {
  %2 = alloca ptr, align 8
  store ptr %0, ptr %2, align 8, !tbaa !36
  %3 = load ptr, ptr %2, align 8, !tbaa !36
  %4 = call i64 @strlen(ptr noundef %3) #22
  ret i64 %4
}

; Function Attrs: inlinehint nounwind sspstrong uwtable
define internal i64 @rbimpl_str_cat_cstr(i64 noundef %0, ptr noundef nonnull %1) #3 {
  %3 = alloca i64, align 8
  %4 = alloca ptr, align 8
  %5 = alloca i64, align 8
  store i64 %0, ptr %3, align 8, !tbaa !7
  store ptr %1, ptr %4, align 8, !tbaa !36
  call void @llvm.lifetime.start.p0(i64 8, ptr %5) #21
  %6 = load ptr, ptr %4, align 8, !tbaa !36
  %7 = call i64 @rbimpl_strlen(ptr noundef %6)
  store i64 %7, ptr %5, align 8, !tbaa !7
  %8 = load i64, ptr %3, align 8, !tbaa !7
  %9 = load ptr, ptr %4, align 8, !tbaa !36
  %10 = load i64, ptr %5, align 8, !tbaa !7
  %11 = call i64 @rb_str_cat(i64 noundef %8, ptr noundef %9, i64 noundef %10)
  call void @llvm.lifetime.end.p0(i64 8, ptr %5) #21
  ret i64 %11
}

; Function Attrs: nounwind sspstrong uwtable
define internal i64 @f_format(i64 noundef %0, ptr noundef %1) #0 {
  %3 = alloca i64, align 8
  %4 = alloca ptr, align 8
  %5 = alloca i64, align 8
  %6 = alloca ptr, align 8
  store i64 %0, ptr %3, align 8, !tbaa !7
  store ptr %1, ptr %4, align 8, !tbaa !30
  call void @llvm.lifetime.start.p0(i64 8, ptr %5) #21
  call void @llvm.lifetime.start.p0(i64 8, ptr %6) #21
  %7 = load i64, ptr %3, align 8, !tbaa !7
  %8 = inttoptr i64 %7 to ptr
  store ptr %8, ptr %6, align 8, !tbaa !16
  %9 = load ptr, ptr %4, align 8, !tbaa !30
  %10 = load ptr, ptr %6, align 8, !tbaa !16
  %11 = getelementptr inbounds nuw %struct.RRational, ptr %10, i32 0, i32 1
  %12 = load i64, ptr %11, align 8, !tbaa !19
  %13 = call i64 %9(i64 noundef %12)
  store i64 %13, ptr %5, align 8, !tbaa !7
  %14 = load i64, ptr %5, align 8, !tbaa !7
  %15 = call i64 @rbimpl_str_cat_cstr(i64 noundef %14, ptr noundef @.str.17)
  %16 = load i64, ptr %5, align 8, !tbaa !7
  %17 = load ptr, ptr %4, align 8, !tbaa !30
  %18 = load ptr, ptr %6, align 8, !tbaa !16
  %19 = getelementptr inbounds nuw %struct.RRational, ptr %18, i32 0, i32 2
  %20 = load i64, ptr %19, align 8, !tbaa !21
  %21 = call i64 %17(i64 noundef %20)
  %22 = call i64 @rb_str_concat(i64 noundef %16, i64 noundef %21)
  %23 = load i64, ptr %5, align 8, !tbaa !7
  call void @llvm.lifetime.end.p0(i64 8, ptr %6) #21
  call void @llvm.lifetime.end.p0(i64 8, ptr %5) #21
  ret i64 %23
}

; Function Attrs: nounwind sspstrong uwtable
define internal i64 @nurat_to_s(i64 noundef %0) #0 {
  %2 = alloca i64, align 8
  store i64 %0, ptr %2, align 8, !tbaa !7
  %3 = load i64, ptr %2, align 8, !tbaa !7
  %4 = call i64 @f_format(i64 noundef %3, ptr noundef @rb_obj_as_string)
  ret i64 %4
}