; Function Attrs: nounwind sspstrong uwtable
define internal noundef i64 @nurat_to_s(i64 noundef %0) #0 {
  %2 = inttoptr i64 %0 to ptr
  %3 = getelementptr inbounds nuw i8, ptr %2, i64 16
  %4 = load i64, ptr %3, align 8, !tbaa !19
  %5 = tail call i64 @rb_obj_as_string(i64 noundef %4) #17, !callees !42
  %6 = tail call i64 @rb_str_cat(i64 noundef %5, ptr noundef nonnull @.str.17, i64 noundef 1) #17
  %7 = getelementptr inbounds nuw i8, ptr %2, i64 24
  %8 = load i64, ptr %7, align 8, !tbaa !21
  %9 = tail call i64 @rb_obj_as_string(i64 noundef %8) #17, !callees !42
  %10 = tail call i64 @rb_str_concat(i64 noundef %5, i64 noundef %9) #17
  ret i64 %5
}